target datalayout = "e-m:e-p270:32:32-p271:32:32-p272:64:64-i64:64-i128:128-f80:128-n8:16:32:64-S128"
target triple = "x86_64-pc-linux-gnu"

%struct.buf_t = type { i32, ptr, i32, i32, i8, i8 }

@cg_conf_buf = internal global ptr null, align 8
@.str.14 = private unnamed_addr constant [32 x i8] c"%s: pthread_rwlock_unlock(): %m\00", align 1
@.str.15 = private unnamed_addr constant [32 x i8] c"%s: pthread_rwlock_rdlock(): %m\00", align 1
@.str.38 = private unnamed_addr constant [45 x i8] c"%s:%d: %s: safe_write (%zu of %d) failed: %m\00", align 1
@.str.39 = private unnamed_addr constant [9 x i8] c"cgroup.c\00", align 1
@.str.40 = private unnamed_addr constant [48 x i8] c"%s:%d: %s: safe_write (%zu of %d) partial write\00", align 1
@__func__.cgroup_write_conf = private unnamed_addr constant [18 x i8] c"cgroup_write_conf\00", align 1
@cg_conf_lock = internal global { { i32, i32, i32, i32, i32, i32, i32, i32, i8, [7 x i8], i64, i32, [4 x i8] } } zeroinitializer, align 8

; Function Attrs: nounwind uwtable
define dso_local i32 @cgroup_write_conf(i32 noundef %0) #0 {
  %2 = alloca i32, align 4
  %3 = alloca i32, align 4
  %4 = alloca i32, align 4
  %5 = alloca i32, align 4
  %6 = alloca i64, align 8
  %7 = alloca ptr, align 8
  %8 = alloca i32, align 4
  %9 = alloca i32, align 4
  %10 = alloca i64, align 8
  %11 = alloca ptr, align 8
  %12 = alloca i32, align 4
  %13 = alloca i32, align 4
  %14 = alloca i32, align 4
  store i32 %0, ptr %3, align 4
  call void @llvm.lifetime.start.p0(i64 4, ptr %4) #9
  br label %15

15:                                               ; preds = %1
  call void @llvm.lifetime.start.p0(i64 4, ptr %5) #9
  %16 = call i32 @pthread_rwlock_rdlock(ptr noundef @cg_conf_lock) #9
  store i32 %16, ptr %5, align 4
  %17 = load i32, ptr %5, align 4
  %18 = icmp ne i32 %17, 0
  br i1 %18, label %19, label %22

19:                                               ; preds = %15
  %20 = load i32, ptr %5, align 4
  %21 = call ptr @__errno_location() #10
  store i32 %20, ptr %21, align 4
  call void (ptr, ...) @fatal_abort(ptr noundef @.str.15, ptr noundef @__func__.cgroup_write_conf) #11
  unreachable

22:                                               ; preds = %15
  call void @llvm.lifetime.end.p0(i64 4, ptr %5) #9
  br label %23

23:                                               ; preds = %22
  br label %24

24:                                               ; preds = %23
  %25 = load ptr, ptr @cg_conf_buf, align 8
  %26 = getelementptr inbounds nuw %struct.buf_t, ptr %25, i32 0, i32 3
  %27 = load i32, ptr %26, align 4
  store i32 %27, ptr %4, align 4
  br label %28

28:                                               ; preds = %24
  call void @llvm.lifetime.start.p0(i64 8, ptr %6) #9
  store i64 4, ptr %6, align 8
  call void @llvm.lifetime.start.p0(i64 8, ptr %7) #9
  store ptr %4, ptr %7, align 8
  call void @llvm.lifetime.start.p0(i64 4, ptr %8) #9
  br label %29

29:                                               ; preds = %85, %48, %28
  %30 = load i64, ptr %6, align 8
  %31 = icmp ugt i64 %30, 0
  br i1 %31, label %32, label %86

32:                                               ; preds = %29
  %33 = load i32, ptr %3, align 4
  %34 = load ptr, ptr %7, align 8
  %35 = load i64, ptr %6, align 8
  %36 = call i64 @write(i32 noundef %33, ptr noundef %34, i64 noundef %35)
  %37 = trunc i64 %36 to i32
  store i32 %37, ptr %8, align 4
  %38 = load i32, ptr %8, align 4
  %39 = icmp slt i32 %38, 0
  br i1 %39, label %40, label %61

40:                                               ; preds = %32
  %41 = call ptr @__errno_location() #10
  %42 = load i32, ptr %41, align 4
  %43 = icmp eq i32 %42, 11
  br i1 %43, label %48, label %44

44:                                               ; preds = %40
  %45 = call ptr @__errno_location() #10
  %46 = load i32, ptr %45, align 4
  %47 = icmp eq i32 %46, 4
  br i1 %47, label %48, label %49

48:                                               ; preds = %44, %40
  br label %29, !llvm.loop !16

49:                                               ; preds = %44
  br label %50

50:                                               ; preds = %49
  br label %51

51:                                               ; preds = %50
  %52 = call i32 @get_log_level()
  %53 = icmp sge i32 %52, 5
  br i1 %53, label %54, label %56

54:                                               ; preds = %51
  %55 = load i64, ptr %6, align 8
  call void (i32, ptr, ...) @log_var(i32 noundef 5, ptr noundef @.str.38, ptr noundef @.str.39, i32 noundef 666, ptr noundef @__func__.cgroup_write_conf, i64 noundef %55, i32 noundef 4)
  br label %56

56:                                               ; preds = %54, %51
  br label %57

57:                                               ; preds = %56
  br label %58

58:                                               ; preds = %57
  br label %59

59:                                               ; preds = %58
  br label %60

60:                                               ; preds = %59
  store i32 12, ptr %9, align 4
  br label %87

61:                                               ; preds = %32
  %62 = load i32, ptr %8, align 4
  %63 = load ptr, ptr %7, align 8
  %64 = sext i32 %62 to i64
  %65 = getelementptr inbounds i8, ptr %63, i64 %64
  store ptr %65, ptr %7, align 8
  %66 = load i32, ptr %8, align 4
  %67 = sext i32 %66 to i64
  %68 = load i64, ptr %6, align 8
  %69 = sub i64 %68, %67
  store i64 %69, ptr %6, align 8
  %70 = load i64, ptr %6, align 8
  %71 = icmp ugt i64 %70, 0
  br i1 %71, label %72, label %84

72:                                               ; preds = %61
  br label %73

73:                                               ; preds = %72
  br label %74

74:                                               ; preds = %73
  %75 = call i32 @get_log_level()
  %76 = icmp sge i32 %75, 7
  br i1 %76, label %77, label %79

77:                                               ; preds = %74
  %78 = load i64, ptr %6, align 8
  call void (i32, ptr, ...) @log_var(i32 noundef 7, ptr noundef @.str.40, ptr noundef @.str.39, i32 noundef 666, ptr noundef @__func__.cgroup_write_conf, i64 noundef %78, i32 noundef 4)
  br label %79

79:                                               ; preds = %77, %74
  br label %80

80:                                               ; preds = %79
  br label %81

81:                                               ; preds = %80
  br label %82

82:                                               ; preds = %81
  br label %83

83:                                               ; preds = %82
  br label %84

84:                                               ; preds = %83, %61
  br label %85

85:                                               ; preds = %84
  br label %29, !llvm.loop !16

86:                                               ; preds = %29
  store i32 0, ptr %9, align 4
  br label %87

87:                                               ; preds = %60, %86
  call void @llvm.lifetime.end.p0(i64 4, ptr %8) #9
  call void @llvm.lifetime.end.p0(i64 8, ptr %7) #9
  call void @llvm.lifetime.end.p0(i64 8, ptr %6) #9
  %88 = load i32, ptr %9, align 4
  switch i32 %88, label %184 [
    i32 0, label %89
    i32 12, label %173
  ]

89:                                               ; preds = %87
  br label %90

90:                                               ; preds = %89
  br label %91

91:                                               ; preds = %90
  br label %92

92:                                               ; preds = %91
  call void @llvm.lifetime.start.p0(i64 8, ptr %10) #9
  %93 = load i32, ptr %4, align 4
  %94 = sext i32 %93 to i64
  store i64 %94, ptr %10, align 8
  call void @llvm.lifetime.start.p0(i64 8, ptr %11) #9
  %95 = load ptr, ptr @cg_conf_buf, align 8
  %96 = getelementptr inbounds nuw %struct.buf_t, ptr %95, i32 0, i32 1
  %97 = load ptr, ptr %96, align 8
  store ptr %97, ptr %11, align 8
  call void @llvm.lifetime.start.p0(i64 4, ptr %12) #9
  br label %98

98:                                               ; preds = %156, %117, %92
  %99 = load i64, ptr %10, align 8
  %100 = icmp ugt i64 %99, 0
  br i1 %100, label %101, label %157

101:                                              ; preds = %98
  %102 = load i32, ptr %3, align 4
  %103 = load ptr, ptr %11, align 8
  %104 = load i64, ptr %10, align 8
  %105 = call i64 @write(i32 noundef %102, ptr noundef %103, i64 noundef %104)
  %106 = trunc i64 %105 to i32
  store i32 %106, ptr %12, align 4
  %107 = load i32, ptr %12, align 4
  %108 = icmp slt i32 %107, 0
  br i1 %108, label %109, label %131

109:                                              ; preds = %101
  %110 = call ptr @__errno_location() #10
  %111 = load i32, ptr %110, align 4
  %112 = icmp eq i32 %111, 11
  br i1 %112, label %117, label %113

113:                                              ; preds = %109
  %114 = call ptr @__errno_location() #10
  %115 = load i32, ptr %114, align 4
  %116 = icmp eq i32 %115, 4
  br i1 %116, label %117, label %118

117:                                              ; preds = %113, %109
  br label %98, !llvm.loop !17

118:                                              ; preds = %113
  br label %119

119:                                              ; preds = %118
  br label %120

120:                                              ; preds = %119
  %121 = call i32 @get_log_level()
  %122 = icmp sge i32 %121, 5
  br i1 %122, label %123, label %126

123:                                              ; preds = %120
  %124 = load i64, ptr %10, align 8
  %125 = load i32, ptr %4, align 4
  call void (i32, ptr, ...) @log_var(i32 noundef 5, ptr noundef @.str.38, ptr noundef @.str.39, i32 noundef 667, ptr noundef @__func__.cgroup_write_conf, i64 noundef %124, i32 noundef %125)
  br label %126

126:                                              ; preds = %123, %120
  br label %127

127:                                              ; preds = %126
  br label %128

128:                                              ; preds = %127
  br label %129

129:                                              ; preds = %128
  br label %130

130:                                              ; preds = %129
  store i32 12, ptr %9, align 4
  br label %158

131:                                              ; preds = %101
  %132 = load i32, ptr %12, align 4
  %133 = load ptr, ptr %11, align 8
  %134 = sext i32 %132 to i64
  %135 = getelementptr inbounds i8, ptr %133, i64 %134
  store ptr %135, ptr %11, align 8
  %136 = load i32, ptr %12, align 4
  %137 = sext i32 %136 to i64
  %138 = load i64, ptr %10, align 8
  %139 = sub i64 %138, %137
  store i64 %139, ptr %10, align 8
  %140 = load i64, ptr %10, align 8
  %141 = icmp ugt i64 %140, 0
  br i1 %141, label %142, label %155

142:                                              ; preds = %131
  br label %143

143:                                              ; preds = %142
  br label %144

144:                                              ; preds = %143
  %145 = call i32 @get_log_level()
  %146 = icmp sge i32 %145, 7
  br i1 %146, label %147, label %150

147:                                              ; preds = %144
  %148 = load i64, ptr %10, align 8
  %149 = load i32, ptr %4, align 4
  call void (i32, ptr, ...) @log_var(i32 noundef 7, ptr noundef @.str.40, ptr noundef @.str.39, i32 noundef 667, ptr noundef @__func__.cgroup_write_conf, i64 noundef %148, i32 noundef %149)
  br label %150

150:                                              ; preds = %147, %144
  br label %151

151:                                              ; preds = %150
  br label %152

152:                                              ; preds = %151
  br label %153

153:                                              ; preds = %152
  br label %154

154:                                              ; preds = %153
  br label %155

155:                                              ; preds = %154, %131
  br label %156

156:                                              ; preds = %155
  br label %98, !llvm.loop !17

157:                                              ; preds = %98
  store i32 0, ptr %9, align 4
  br label %158

158:                                              ; preds = %130, %157
  call void @llvm.lifetime.end.p0(i64 4, ptr %12) #9
  call void @llvm.lifetime.end.p0(i64 8, ptr %11) #9
  call void @llvm.lifetime.end.p0(i64 8, ptr %10) #9
  %159 = load i32, ptr %9, align 4
  switch i32 %159, label %184 [
    i32 0, label %160
    i32 12, label %173
  ]

160:                                              ; preds = %158
  br label %161

161:                                              ; preds = %160
  br label %162

162:                                              ; preds = %161
  br label %163

163:                                              ; preds = %162
  call void @llvm.lifetime.start.p0(i64 4, ptr %13) #9
  %164 = call i32 @pthread_rwlock_unlock(ptr noundef @cg_conf_lock) #9
  store i32 %164, ptr %13, align 4
  %165 = load i32, ptr %13, align 4
  %166 = icmp ne i32 %165, 0
  br i1 %166, label %167, label %170

167:                                              ; preds = %163
  %168 = load i32, ptr %13, align 4
  %169 = call ptr @__errno_location() #10
  store i32 %168, ptr %169, align 4
  call void (ptr, ...) @fatal_abort(ptr noundef @.str.14, ptr noundef @__func__.cgroup_write_conf) #11
  unreachable

170:                                              ; preds = %163
  call void @llvm.lifetime.end.p0(i64 4, ptr %13) #9
  br label %171

171:                                              ; preds = %170
  br label %172

172:                                              ; preds = %171
  store i32 0, ptr %2, align 4
  store i32 1, ptr %9, align 4
  br label %184

173:                                              ; preds = %158, %87
  br label %174

174:                                              ; preds = %173
  call void @llvm.lifetime.start.p0(i64 4, ptr %14) #9
  %175 = call i32 @pthread_rwlock_unlock(ptr noundef @cg_conf_lock) #9
  store i32 %175, ptr %14, align 4
  %176 = load i32, ptr %14, align 4
  %177 = icmp ne i32 %176, 0
  br i1 %177, label %178, label %181

178:                                              ; preds = %174
  %179 = load i32, ptr %14, align 4
  %180 = call ptr @__errno_location() #10
  store i32 %179, ptr %180, align 4
  call void (ptr, ...) @fatal_abort(ptr noundef @.str.14, ptr noundef @__func__.cgroup_write_conf) #11
  unreachable

181:                                              ; preds = %174
  call void @llvm.lifetime.end.p0(i64 4, ptr %14) #9
  br label %182

182:                                              ; preds = %181
  br label %183

183:                                              ; preds = %182
  store i32 -1, ptr %2, align 4
  store i32 1, ptr %9, align 4
  br label %184

184:                                              ; preds = %183, %172, %158, %87
  call void @llvm.lifetime.end.p0(i64 4, ptr %4) #9
  %185 = load i32, ptr %2, align 4
  ret i32 %185
}