; Function Attrs: nounwind uwtable
define dso_local range(i32 -1, 1) i32 @cgroup_write_conf(i32 noundef %0) local_unnamed_addr #0 {
  %2 = alloca i32, align 4
  call void @llvm.lifetime.start.p0(i64 4, ptr nonnull %2) #12
  %3 = tail call i32 @pthread_rwlock_rdlock(ptr noundef nonnull @cg_conf_lock) #12
  %.not = icmp eq i32 %3, 0
  br i1 %.not, label %6, label %4

4:                                                ; preds = %1
  %5 = tail call ptr @__errno_location() #13
  store i32 %3, ptr %5, align 4
  tail call void (ptr, ...) @fatal_abort(ptr noundef nonnull @.str.15, ptr noundef nonnull @__func__.cgroup_write_conf) #14
  unreachable

6:                                                ; preds = %1
  %7 = load ptr, ptr @cg_conf_buf, align 8
  %8 = getelementptr inbounds nuw i8, ptr %7, i64 20
  %9 = load i32, ptr %8, align 4
  store i32 %9, ptr %2, align 4
  br label %.lr.ph.split

.lr.ph.split:                                     ; preds = %.lr.ph.split.backedge, %6
  %.032.ph74 = phi i64 [ 4, %6 ], [ %23, %.lr.ph.split.backedge ]
  %.033.ph72 = phi ptr [ %2, %6 ], [ %22, %.lr.ph.split.backedge ]
  %10 = call i64 @write(i32 noundef %0, ptr noundef %.033.ph72, i64 noundef %.032.ph74) #12
  %11 = and i64 %10, 2147483648
  %.not4770 = icmp eq i64 %11, 0
  br i1 %.not4770, label %.split.us, label %.lr.ph71

.lr.ph71:                                         ; preds = %.lr.ph.split
  %12 = tail call ptr @__errno_location() #13
  br label %13

13:                                               ; preds = %.lr.ph71, %15
  %14 = load i32, ptr %12, align 4
  switch i32 %14, label %.split65.us [
    i32 11, label %15
    i32 4, label %15
  ]

15:                                               ; preds = %13, %13
  %16 = call i64 @write(i32 noundef %0, ptr noundef %.033.ph72, i64 noundef %.032.ph74) #12
  %17 = and i64 %16, 2147483648
  %.not47 = icmp eq i64 %17, 0
  br i1 %.not47, label %.split.us, label %13

.split65.us:                                      ; preds = %13
  %18 = tail call i32 @get_log_level() #12
  %19 = icmp sgt i32 %18, 4
  br i1 %19, label %20, label %.thread

20:                                               ; preds = %.split65.us
  tail call void (i32, ptr, ...) @log_var(i32 noundef 5, ptr noundef nonnull @.str.38, ptr noundef nonnull @.str.39, i32 noundef 666, ptr noundef nonnull @__func__.cgroup_write_conf, i64 noundef %.032.ph74, i32 noundef 4) #12
  br label %.thread

.split.us:                                        ; preds = %15, %.lr.ph.split
  %.us-phi = phi i64 [ %10, %.lr.ph.split ], [ %16, %15 ]
  %21 = and i64 %.us-phi, 2147483647
  %22 = getelementptr inbounds nuw i8, ptr %.033.ph72, i64 %21
  %23 = sub i64 %.032.ph74, %21
  %.not48 = icmp eq i64 %23, 0
  br i1 %.not48, label %.outer58._crit_edge, label %24

24:                                               ; preds = %.split.us
  %25 = tail call i32 @get_log_level() #12
  %26 = icmp sgt i32 %25, 6
  br i1 %26, label %27, label %.lr.ph.split.backedge

27:                                               ; preds = %24
  tail call void (i32, ptr, ...) @log_var(i32 noundef 7, ptr noundef nonnull @.str.40, ptr noundef nonnull @.str.39, i32 noundef 666, ptr noundef nonnull @__func__.cgroup_write_conf, i64 noundef %23, i32 noundef 4) #12
  br label %.lr.ph.split.backedge

.lr.ph.split.backedge:                            ; preds = %27, %24
  br label %.lr.ph.split, !llvm.loop !16

.outer58._crit_edge:                              ; preds = %.split.us
  %.not4991 = icmp eq i32 %9, 0
  br i1 %.not4991, label %.outer._crit_edge, label %.lr.ph77.preheader

.lr.ph77.preheader:                               ; preds = %.outer58._crit_edge
  %28 = load ptr, ptr @cg_conf_buf, align 8
  %29 = getelementptr inbounds nuw i8, ptr %28, i64 8
  %30 = load ptr, ptr %29, align 8
  %31 = sext i32 %9 to i64
  br label %.lr.ph77.split

.lr.ph77.split:                                   ; preds = %.lr.ph77.split.backedge, %.lr.ph77.preheader
  %.034.ph94 = phi ptr [ %30, %.lr.ph77.preheader ], [ %44, %.lr.ph77.split.backedge ]
  %.035.ph92 = phi i64 [ %31, %.lr.ph77.preheader ], [ %45, %.lr.ph77.split.backedge ]
  %32 = tail call i64 @write(i32 noundef %0, ptr noundef %.034.ph94, i64 noundef %.035.ph92) #12
  %33 = and i64 %32, 2147483648
  %.not5088 = icmp eq i64 %33, 0
  br i1 %.not5088, label %.split80.us, label %.lr.ph89

.lr.ph89:                                         ; preds = %.lr.ph77.split
  %34 = tail call ptr @__errno_location() #13
  br label %35

35:                                               ; preds = %.lr.ph89, %37
  %36 = load i32, ptr %34, align 4
  switch i32 %36, label %.split83.us [
    i32 11, label %37
    i32 4, label %37
  ]

37:                                               ; preds = %35, %35
  %38 = tail call i64 @write(i32 noundef %0, ptr noundef %.034.ph94, i64 noundef %.035.ph92) #12
  %39 = and i64 %38, 2147483648
  %.not50 = icmp eq i64 %39, 0
  br i1 %.not50, label %.split80.us, label %35

.split83.us:                                      ; preds = %35
  %40 = tail call i32 @get_log_level() #12
  %41 = icmp sgt i32 %40, 4
  br i1 %41, label %42, label %.thread

42:                                               ; preds = %.split83.us
  tail call void (i32, ptr, ...) @log_var(i32 noundef 5, ptr noundef nonnull @.str.38, ptr noundef nonnull @.str.39, i32 noundef 667, ptr noundef nonnull @__func__.cgroup_write_conf, i64 noundef %.035.ph92, i32 noundef %9) #12
  br label %.thread

.split80.us:                                      ; preds = %37, %.lr.ph77.split
  %.us-phi81 = phi i64 [ %32, %.lr.ph77.split ], [ %38, %37 ]
  %43 = and i64 %.us-phi81, 2147483647
  %44 = getelementptr inbounds nuw i8, ptr %.034.ph94, i64 %43
  %45 = sub i64 %.035.ph92, %43
  %.not51 = icmp eq i64 %45, 0
  br i1 %.not51, label %.outer._crit_edge, label %46

46:                                               ; preds = %.split80.us
  %47 = tail call i32 @get_log_level() #12
  %48 = icmp sgt i32 %47, 6
  br i1 %48, label %49, label %.lr.ph77.split.backedge

49:                                               ; preds = %46
  tail call void (i32, ptr, ...) @log_var(i32 noundef 7, ptr noundef nonnull @.str.40, ptr noundef nonnull @.str.39, i32 noundef 667, ptr noundef nonnull @__func__.cgroup_write_conf, i64 noundef %45, i32 noundef %9) #12
  br label %.lr.ph77.split.backedge

.lr.ph77.split.backedge:                          ; preds = %49, %46
  br label %.lr.ph77.split, !llvm.loop !17

.outer._crit_edge:                                ; preds = %.split80.us, %.outer58._crit_edge
  %50 = tail call i32 @pthread_rwlock_unlock(ptr noundef nonnull @cg_conf_lock) #12
  %.not53 = icmp eq i32 %50, 0
  br i1 %.not53, label %56, label %51

51:                                               ; preds = %.outer._crit_edge
  %52 = tail call ptr @__errno_location() #13
  store i32 %50, ptr %52, align 4
  tail call void (ptr, ...) @fatal_abort(ptr noundef nonnull @.str.14, ptr noundef nonnull @__func__.cgroup_write_conf) #14
  unreachable

.thread:                                          ; preds = %.split83.us, %42, %.split65.us, %20
  %53 = tail call i32 @pthread_rwlock_unlock(ptr noundef nonnull @cg_conf_lock) #12
  %.not52 = icmp eq i32 %53, 0
  br i1 %.not52, label %56, label %54

54:                                               ; preds = %.thread
  %55 = tail call ptr @__errno_location() #13
  store i32 %53, ptr %55, align 4
  tail call void (ptr, ...) @fatal_abort(ptr noundef nonnull @.str.14, ptr noundef nonnull @__func__.cgroup_write_conf) #14
  unreachable

56:                                               ; preds = %.thread, %.outer._crit_edge
  %.0 = phi i32 [ 0, %.outer._crit_edge ], [ -1, %.thread ]
  call void @llvm.lifetime.end.p0(i64 4, ptr nonnull %2) #12
  ret i32 %.0
}